target datalayout = "e-m:e-p270:32:32-p271:32:32-p272:64:64-i64:64-i128:128-f80:128-n8:16:32:64-S128"
target triple = "x86_64-pc-linux-gnu"

; Function Attrs: nounwind uwtable
define internal ptr @obj_extra_data_new(ptr noundef %0, ptr noundef %1, ptr noundef %2) #0 {
  %4 = alloca ptr, align 8
  %5 = alloca ptr, align 8
  %6 = alloca ptr, align 8
  %7 = alloca ptr, align 8
  %8 = alloca i64, align 8
  %9 = alloca ptr, align 8
  %10 = alloca i32, align 4
  store ptr %0, ptr %5, align 8, !tbaa !16
  store ptr %1, ptr %6, align 8, !tbaa !3
  store ptr %2, ptr %7, align 8, !tbaa !3
  call void @llvm.lifetime.start.p0(i64 8, ptr %8) #6
  store i64 8, ptr %8, align 8, !tbaa !36
  call void @llvm.lifetime.start.p0(i64 8, ptr %9) #6
  %11 = load ptr, ptr %5, align 8, !tbaa !16
  %12 = load i64, ptr %8, align 8, !tbaa !36
  %13 = call ptr @PyUnstable_Object_GC_NewWithExtraData(ptr noundef %11, i64 noundef %12)
  store ptr %13, ptr %9, align 8, !tbaa !3
  %14 = load ptr, ptr %9, align 8, !tbaa !3
  %15 = icmp eq ptr %14, null
  br i1 %15, label %16, label %18

16:                                               ; preds = %3
  %17 = call ptr @PyErr_NoMemory()
  store ptr %17, ptr %4, align 8
  store i32 1, ptr %10, align 4
  br label %21

18:                                               ; preds = %3
  %19 = load ptr, ptr %9, align 8, !tbaa !3
  call void @PyObject_GC_Track(ptr noundef %19)
  %20 = load ptr, ptr %9, align 8, !tbaa !3
  store ptr %20, ptr %4, align 8
  store i32 1, ptr %10, align 4
  br label %21

21:                                               ; preds = %18, %16
  call void @llvm.lifetime.end.p0(i64 8, ptr %9) #6
  call void @llvm.lifetime.end.p0(i64 8, ptr %8) #6
  %22 = load ptr, ptr %4, align 8
  ret ptr %22
}