; Function Attrs: nounwind uwtable
define internal ptr @obj_extra_data_new(ptr noundef %0, ptr readnone captures(none) %1, ptr readnone captures(none) %2) #0 {
  %4 = tail call ptr @PyUnstable_Object_GC_NewWithExtraData(ptr noundef %0, i64 noundef 8) #8
  %5 = icmp eq ptr %4, null
  br i1 %5, label %6, label %8

6:                                                ; preds = %3
  %7 = tail call ptr @PyErr_NoMemory() #8
  br label %9

8:                                                ; preds = %3
  tail call void @PyObject_GC_Track(ptr noundef nonnull %4) #8
  br label %9

9:                                                ; preds = %8, %6
  %.0 = phi ptr [ %7, %6 ], [ %4, %8 ]
  ret ptr %.0
}